; Function Attrs: mustprogress uwtable
define void @_ZN2cv16TLSDataContainerC2Ev(ptr noundef nonnull align 8 dereferenceable(12) initializes((0, 8)) %0) unnamed_addr #3 align 2 personality ptr @__gxx_personality_v0 {
  store ptr getelementptr inbounds nuw inrange(-16, 32) (i8, ptr @_ZTVN2cv16TLSDataContainerE, i64 16), ptr %0, align 8, !tbaa !25
  %2 = load atomic i8, ptr @_ZGVZN2cv7detailsL13getTlsStorageEvE8instance acquire, align 8
  %3 = icmp eq i8 %2, 0
  br i1 %3, label %4, label %_ZN2cv7detailsL13getTlsStorageEv.exit, !prof !95

4:                                                ; preds = %1
  %5 = tail call i32 @__cxa_guard_acquire(ptr nonnull @_ZGVZN2cv7detailsL13getTlsStorageEvE8instance) #34
  %.not.i = icmp eq i32 %5, 0
  br i1 %.not.i, label %_ZN2cv7detailsL13getTlsStorageEv.exit, label %6

6:                                                ; preds = %4
  %7 = invoke noalias noundef nonnull dereferenceable(96) ptr @_Znwm(i64 noundef 96) #49
          to label %8 unwind label %11

8:                                                ; preds = %6
  invoke void @_ZN2cv7details10TlsStorageC2Ev(ptr noundef nonnull align 8 dereferenceable(96) %7)
          to label %9 unwind label %13

9:                                                ; preds = %8
  store ptr %7, ptr @_ZZN2cv7detailsL13getTlsStorageEvE8instance, align 8, !tbaa !120
  %10 = tail call ptr @llvm.invariant.start.p0(i64 8, ptr nonnull @_ZZN2cv7detailsL13getTlsStorageEvE8instance)
  tail call void @__cxa_guard_release(ptr nonnull @_ZGVZN2cv7detailsL13getTlsStorageEvE8instance) #34
  br label %_ZN2cv7detailsL13getTlsStorageEv.exit

11:                                               ; preds = %6
  %12 = landingpad { ptr, i32 }
          cleanup
  br label %15

13:                                               ; preds = %8
  %14 = landingpad { ptr, i32 }
          cleanup
  tail call void @_ZdlPv(ptr noundef nonnull %7) #51
  br label %15

15:                                               ; preds = %13, %11
  %.pn.i = phi { ptr, i32 } [ %14, %13 ], [ %12, %11 ]
  tail call void @__cxa_guard_abort(ptr nonnull @_ZGVZN2cv7detailsL13getTlsStorageEvE8instance) #34
  resume { ptr, i32 } %.pn.i

_ZN2cv7detailsL13getTlsStorageEv.exit:            ; preds = %1, %4, %9
  %16 = load ptr, ptr @_ZZN2cv7detailsL13getTlsStorageEvE8instance, align 8, !tbaa !120
  %17 = tail call noundef i64 @_ZN2cv7details10TlsStorage11reserveSlotEPNS_16TLSDataContainerE(ptr noundef nonnull align 8 dereferenceable(96) %16, ptr noundef nonnull %0)
  %18 = trunc i64 %17 to i32
  %19 = getelementptr inbounds nuw i8, ptr %0, i64 8
  store i32 %18, ptr %19, align 8, !tbaa !143
  ret void
}